target datalayout = "e-m:e-p270:32:32-p271:32:32-p272:64:64-i64:64-i128:128-f80:128-n8:16:32:64-S128"
target triple = "x86_64-pc-linux-gnu"

%class.mpff_manager = type <{ i32, i32, %class.svector, i32, i8, [3 x i8], %class.id_gen, [4 x %class.svector], %class.svector, %class.mpff, [8 x i8] }>
%class.id_gen = type { i32, %class.svector }
%class.svector = type { %class.vector }
%class.vector = type { ptr }
%class.mpff = type { i32, i32 }

; Function Attrs: mustprogress nounwind uwtable
define linkonce_odr hidden noundef nonnull align 4 dereferenceable(4) ptr @_ZN6vectorIjLb0EjEixEj(ptr noundef nonnull align 8 dereferenceable(8) %0, i32 noundef %1) #5 comdat align 2 {
  %3 = alloca ptr, align 8
  %4 = alloca i32, align 4
  store ptr %0, ptr %3, align 8, !tbaa !32
  store i32 %1, ptr %4, align 4, !tbaa !8
  %5 = load ptr, ptr %3, align 8
  %6 = getelementptr inbounds nuw %class.vector, ptr %5, i32 0, i32 0
  %7 = load ptr, ptr %6, align 8, !tbaa !35
  %8 = load i32, ptr %4, align 4, !tbaa !8
  %9 = zext i32 %8 to i64
  %10 = getelementptr inbounds nuw i32, ptr %7, i64 %9
  ret ptr %10
}

; Function Attrs: mustprogress nounwind uwtable
define linkonce_odr hidden noundef i32 @_ZNK6vectorIjLb0EjE4sizeEv(ptr noundef nonnull align 8 dereferenceable(8) %0) #5 comdat align 2 {
  %2 = alloca i32, align 4
  %3 = alloca ptr, align 8
  store ptr %0, ptr %3, align 8, !tbaa !32
  %4 = load ptr, ptr %3, align 8
  %5 = getelementptr inbounds nuw %class.vector, ptr %4, i32 0, i32 0
  %6 = load ptr, ptr %5, align 8, !tbaa !35
  %7 = icmp eq ptr %6, null
  br i1 %7, label %8, label %9

8:                                                ; preds = %1
  store i32 0, ptr %2, align 4
  br label %14

9:                                                ; preds = %1
  %10 = getelementptr inbounds nuw %class.vector, ptr %4, i32 0, i32 0
  %11 = load ptr, ptr %10, align 8, !tbaa !35
  %12 = getelementptr inbounds i32, ptr %11, i64 -1
  %13 = load i32, ptr %12, align 4, !tbaa !8
  store i32 %13, ptr %2, align 4
  br label %14

14:                                               ; preds = %9, %8
  %15 = load i32, ptr %2, align 4
  ret i32 %15
}

; Function Attrs: mustprogress nounwind uwtable
define linkonce_odr hidden void @_ZN6vectorIjLb0EjE8pop_backEv(ptr noundef nonnull align 8 dereferenceable(8) %0) #5 comdat align 2 {
  %2 = alloca ptr, align 8
  store ptr %0, ptr %2, align 8, !tbaa !32
  %3 = load ptr, ptr %2, align 8
  %4 = getelementptr inbounds nuw %class.vector, ptr %3, i32 0, i32 0
  %5 = load ptr, ptr %4, align 8, !tbaa !35
  %6 = getelementptr inbounds i32, ptr %5, i64 -1
  %7 = load i32, ptr %6, align 4, !tbaa !8
  %8 = add i32 %7, -1
  store i32 %8, ptr %6, align 4, !tbaa !8
  ret void
}

; Function Attrs: mustprogress uwtable
define linkonce_odr hidden noundef nonnull align 4 dereferenceable(4) ptr @_ZN6vectorIjLb0EjE4backEv(ptr noundef nonnull align 8 dereferenceable(8) %0) #4 comdat align 2 {
  %2 = alloca ptr, align 8
  store ptr %0, ptr %2, align 8, !tbaa !32
  %3 = load ptr, ptr %2, align 8
  %4 = call noundef i32 @_ZNK6vectorIjLb0EjE4sizeEv(ptr noundef nonnull align 8 dereferenceable(8) %3)
  %5 = sub i32 %4, 1
  %6 = call noundef nonnull align 4 dereferenceable(4) ptr @_ZN6vectorIjLb0EjEixEj(ptr noundef nonnull align 8 dereferenceable(8) %3, i32 noundef %5)
  ret ptr %6
}

; Function Attrs: mustprogress nounwind uwtable
define linkonce_odr hidden noundef zeroext i1 @_ZNK6vectorIjLb0EjE5emptyEv(ptr noundef nonnull align 8 dereferenceable(8) %0) #5 comdat align 2 {
  %2 = alloca ptr, align 8
  store ptr %0, ptr %2, align 8, !tbaa !32
  %3 = load ptr, ptr %2, align 8
  %4 = getelementptr inbounds nuw %class.vector, ptr %3, i32 0, i32 0
  %5 = load ptr, ptr %4, align 8, !tbaa !35
  %6 = icmp eq ptr %5, null
  br i1 %6, label %13, label %7

7:                                                ; preds = %1
  %8 = getelementptr inbounds nuw %class.vector, ptr %3, i32 0, i32 0
  %9 = load ptr, ptr %8, align 8, !tbaa !35
  %10 = getelementptr inbounds i32, ptr %9, i64 -1
  %11 = load i32, ptr %10, align 4, !tbaa !8
  %12 = icmp eq i32 %11, 0
  br label %13

13:                                               ; preds = %7, %1
  %14 = phi i1 [ true, %1 ], [ %12, %7 ]
  ret i1 %14
}

; Function Attrs: mustprogress nounwind uwtable
define linkonce_odr hidden noundef ptr @_ZNK6vectorIjLb0EjE4dataEv(ptr noundef nonnull align 8 dereferenceable(8) %0) #5 comdat align 2 {
  %2 = alloca ptr, align 8
  store ptr %0, ptr %2, align 8, !tbaa !32
  %3 = load ptr, ptr %2, align 8
  %4 = getelementptr inbounds nuw %class.vector, ptr %3, i32 0, i32 0
  %5 = load ptr, ptr %4, align 8, !tbaa !35
  ret ptr %5
}

; Function Attrs: mustprogress uwtable
define linkonce_odr hidden noundef i32 @_ZN6id_gen2mkEv(ptr noundef nonnull align 8 dereferenceable(16) %0) #4 comdat align 2 {
  %2 = alloca ptr, align 8
  %3 = alloca i32, align 4
  store ptr %0, ptr %2, align 8, !tbaa !26
  %4 = load ptr, ptr %2, align 8
  call void @llvm.lifetime.start.p0(i64 4, ptr %3) #3
  %5 = getelementptr inbounds nuw %class.id_gen, ptr %4, i32 0, i32 1
  %6 = call noundef zeroext i1 @_ZNK6vectorIjLb0EjE5emptyEv(ptr noundef nonnull align 8 dereferenceable(8) %5)
  br i1 %6, label %7, label %13

7:                                                ; preds = %1
  %8 = getelementptr inbounds nuw %class.id_gen, ptr %4, i32 0, i32 0
  %9 = load i32, ptr %8, align 8, !tbaa !28
  store i32 %9, ptr %3, align 4, !tbaa !8
  %10 = getelementptr inbounds nuw %class.id_gen, ptr %4, i32 0, i32 0
  %11 = load i32, ptr %10, align 8, !tbaa !28
  %12 = add i32 %11, 1
  store i32 %12, ptr %10, align 8, !tbaa !28
  br label %18

13:                                               ; preds = %1
  %14 = getelementptr inbounds nuw %class.id_gen, ptr %4, i32 0, i32 1
  %15 = call noundef nonnull align 4 dereferenceable(4) ptr @_ZN6vectorIjLb0EjE4backEv(ptr noundef nonnull align 8 dereferenceable(8) %14)
  %16 = load i32, ptr %15, align 4, !tbaa !8
  store i32 %16, ptr %3, align 4, !tbaa !8
  %17 = getelementptr inbounds nuw %class.id_gen, ptr %4, i32 0, i32 1
  call void @_ZN6vectorIjLb0EjE8pop_backEv(ptr noundef nonnull align 8 dereferenceable(8) %17)
  br label %18

18:                                               ; preds = %13, %7
  %19 = load i32, ptr %3, align 4, !tbaa !8
  call void @llvm.lifetime.end.p0(i64 4, ptr %3) #3
  ret i32 %19
}

; Function Attrs: mustprogress uwtable
define linkonce_odr hidden noundef ptr @_ZNK12mpff_manager3sigERK4mpff(ptr noundef nonnull align 8 dereferenceable(89) %0, ptr noundef nonnull align 4 dereferenceable(8) %1) #4 comdat align 2 {
  %3 = alloca ptr, align 8
  %4 = alloca ptr, align 8
  store ptr %0, ptr %3, align 8, !tbaa !3
  store ptr %1, ptr %4, align 8, !tbaa !29
  %5 = load ptr, ptr %3, align 8
  %6 = getelementptr inbounds nuw %class.mpff_manager, ptr %5, i32 0, i32 2
  %7 = call noundef ptr @_ZNK6vectorIjLb0EjE4dataEv(ptr noundef nonnull align 8 dereferenceable(8) %6)
  %8 = load ptr, ptr %4, align 8, !tbaa !29
  %9 = load i32, ptr %8, align 4
  %10 = lshr i32 %9, 1
  %11 = getelementptr inbounds nuw %class.mpff_manager, ptr %5, i32 0, i32 0
  %12 = load i32, ptr %11, align 8, !tbaa !10
  %13 = mul i32 %10, %12
  %14 = zext i32 %13 to i64
  %15 = getelementptr inbounds nuw i32, ptr %7, i64 %14
  ret ptr %15
}

; Function Attrs: mustprogress uwtable
define hidden void @_ZN12mpff_manager8allocateER4mpff(ptr noundef nonnull align 8 dereferenceable(89) %0, ptr noundef nonnull align 4 dereferenceable(8) %1) #4 align 2 {
  %3 = alloca ptr, align 8
  %4 = alloca ptr, align 8
  %5 = alloca i32, align 4
  store ptr %0, ptr %3, align 8, !tbaa !3
  store ptr %1, ptr %4, align 8, !tbaa !29
  %6 = load ptr, ptr %3, align 8
  call void @llvm.lifetime.start.p0(i64 4, ptr %5) #3
  %7 = getelementptr inbounds nuw %class.mpff_manager, ptr %6, i32 0, i32 6
  %8 = call noundef i32 @_ZN6id_gen2mkEv(ptr noundef nonnull align 8 dereferenceable(16) %7)
  store i32 %8, ptr %5, align 4, !tbaa !8
  %9 = load i32, ptr %5, align 4, !tbaa !8
  call void @_ZN12mpff_manager15ensure_capacityEj(ptr noundef nonnull align 8 dereferenceable(89) %6, i32 noundef %9)
  %10 = load i32, ptr %5, align 4, !tbaa !8
  %11 = load ptr, ptr %4, align 8, !tbaa !29
  %12 = load i32, ptr %11, align 4
  %13 = and i32 %10, 2147483647
  %14 = shl i32 %13, 1
  %15 = and i32 %12, 1
  %16 = or i32 %15, %14
  store i32 %16, ptr %11, align 4
  call void @llvm.lifetime.end.p0(i64 4, ptr %5) #3
  ret void
}

; Function Attrs: mustprogress uwtable
define hidden void @_ZN12mpff_manager19set_min_significandER4mpff(ptr noundef nonnull align 8 dereferenceable(89) %0, ptr noundef nonnull align 4 dereferenceable(8) %1) #4 align 2 {
  %3 = alloca ptr, align 8
  %4 = alloca ptr, align 8
  %5 = alloca ptr, align 8
  %6 = alloca i32, align 4
  store ptr %0, ptr %3, align 8, !tbaa !3
  store ptr %1, ptr %4, align 8, !tbaa !29
  %7 = load ptr, ptr %3, align 8
  call void @llvm.lifetime.start.p0(i64 8, ptr %5) #3
  %8 = load ptr, ptr %4, align 8, !tbaa !29
  %9 = call noundef ptr @_ZNK12mpff_manager3sigERK4mpff(ptr noundef nonnull align 8 dereferenceable(89) %7, ptr noundef nonnull align 4 dereferenceable(8) %8)
  store ptr %9, ptr %5, align 8, !tbaa !36
  %10 = load ptr, ptr %5, align 8, !tbaa !36
  %11 = getelementptr inbounds nuw %class.mpff_manager, ptr %7, i32 0, i32 0
  %12 = load i32, ptr %11, align 8, !tbaa !10
  %13 = sub i32 %12, 1
  %14 = zext i32 %13 to i64
  %15 = getelementptr inbounds nuw i32, ptr %10, i64 %14
  store i32 -2147483648, ptr %15, align 4, !tbaa !8
  call void @llvm.lifetime.start.p0(i64 4, ptr %6) #3
  store i32 0, ptr %6, align 4, !tbaa !8
  br label %16

16:                                               ; preds = %28, %2
  %17 = load i32, ptr %6, align 4, !tbaa !8
  %18 = getelementptr inbounds nuw %class.mpff_manager, ptr %7, i32 0, i32 0
  %19 = load i32, ptr %18, align 8, !tbaa !10
  %20 = sub i32 %19, 1
  %21 = icmp ult i32 %17, %20
  br i1 %21, label %23, label %22

22:                                               ; preds = %16
  call void @llvm.lifetime.end.p0(i64 4, ptr %6) #3
  br label %31

23:                                               ; preds = %16
  %24 = load ptr, ptr %5, align 8, !tbaa !36
  %25 = load i32, ptr %6, align 4, !tbaa !8
  %26 = zext i32 %25 to i64
  %27 = getelementptr inbounds nuw i32, ptr %24, i64 %26
  store i32 0, ptr %27, align 4, !tbaa !8
  br label %28

28:                                               ; preds = %23
  %29 = load i32, ptr %6, align 4, !tbaa !8
  %30 = add i32 %29, 1
  store i32 %30, ptr %6, align 4, !tbaa !8
  br label %16, !llvm.loop !83

31:                                               ; preds = %22
  call void @llvm.lifetime.end.p0(i64 8, ptr %5) #3
  ret void
}

; Function Attrs: mustprogress uwtable
define linkonce_odr hidden void @_ZN12mpff_manager18allocate_if_neededER4mpff(ptr noundef nonnull align 8 dereferenceable(89) %0, ptr noundef nonnull align 4 dereferenceable(8) %1) #4 comdat align 2 {
  %3 = alloca ptr, align 8
  %4 = alloca ptr, align 8
  store ptr %0, ptr %3, align 8, !tbaa !3
  store ptr %1, ptr %4, align 8, !tbaa !29
  %5 = load ptr, ptr %3, align 8
  %6 = load ptr, ptr %4, align 8, !tbaa !29
  %7 = load i32, ptr %6, align 4
  %8 = lshr i32 %7, 1
  %9 = icmp eq i32 %8, 0
  br i1 %9, label %10, label %12

10:                                               ; preds = %2
  %11 = load ptr, ptr %4, align 8, !tbaa !29
  call void @_ZN12mpff_manager8allocateER4mpff(ptr noundef nonnull align 8 dereferenceable(89) %5, ptr noundef nonnull align 4 dereferenceable(8) %11)
  br label %12

12:                                               ; preds = %10, %2
  ret void
}

; Function Attrs: mustprogress uwtable
define hidden void @_ZN12mpff_manager16set_plus_epsilonER4mpff(ptr noundef nonnull align 8 dereferenceable(89) %0, ptr noundef nonnull align 4 dereferenceable(8) %1) #4 align 2 {
  %3 = alloca ptr, align 8
  %4 = alloca ptr, align 8
  store ptr %0, ptr %3, align 8, !tbaa !3
  store ptr %1, ptr %4, align 8, !tbaa !29
  %5 = load ptr, ptr %3, align 8
  %6 = load ptr, ptr %4, align 8, !tbaa !29
  call void @_ZN12mpff_manager18allocate_if_neededER4mpff(ptr noundef nonnull align 8 dereferenceable(89) %5, ptr noundef nonnull align 4 dereferenceable(8) %6)
  %7 = load ptr, ptr %4, align 8, !tbaa !29
  %8 = load i32, ptr %7, align 4
  %9 = and i32 %8, -2
  %10 = or i32 %9, 0
  store i32 %10, ptr %7, align 4
  %11 = load ptr, ptr %4, align 8, !tbaa !29
  %12 = getelementptr inbounds nuw %class.mpff, ptr %11, i32 0, i32 1
  store i32 -2147483648, ptr %12, align 4, !tbaa !31
  %13 = load ptr, ptr %4, align 8, !tbaa !29
  call void @_ZN12mpff_manager19set_min_significandER4mpff(ptr noundef nonnull align 8 dereferenceable(89) %5, ptr noundef nonnull align 4 dereferenceable(8) %13)
  ret void
}

; Function Attrs: mustprogress uwtable
define hidden void @_ZN12mpff_manager17set_minus_epsilonER4mpff(ptr noundef nonnull align 8 dereferenceable(89) %0, ptr noundef nonnull align 4 dereferenceable(8) %1) #4 align 2 {
  %3 = alloca ptr, align 8
  %4 = alloca ptr, align 8
  store ptr %0, ptr %3, align 8, !tbaa !3
  store ptr %1, ptr %4, align 8, !tbaa !29
  %5 = load ptr, ptr %3, align 8
  %6 = load ptr, ptr %4, align 8, !tbaa !29
  call void @_ZN12mpff_manager16set_plus_epsilonER4mpff(ptr noundef nonnull align 8 dereferenceable(89) %5, ptr noundef nonnull align 4 dereferenceable(8) %6)
  %7 = load ptr, ptr %4, align 8, !tbaa !29
  %8 = load i32, ptr %7, align 4
  %9 = and i32 %8, -2
  %10 = or i32 %9, 1
  store i32 %10, ptr %7, align 4
  ret void
}