; Function Attrs: mustprogress uwtable
define hidden void @_ZN12mpff_manager17set_minus_epsilonER4mpff(ptr noundef nonnull align 8 dereferenceable(89) %0, ptr noundef nonnull align 4 captures(none) dereferenceable(8) initializes((4, 8)) %1) local_unnamed_addr #3 align 2 {
  %3 = load i32, ptr %1, align 4
  %4 = icmp ult i32 %3, 2
  br i1 %4, label %5, label %_ZN12mpff_manager18allocate_if_neededER4mpff.exit.i

5:                                                ; preds = %2
  %6 = getelementptr inbounds nuw i8, ptr %0, i64 24
  %7 = getelementptr inbounds nuw i8, ptr %0, i64 32
  %8 = load ptr, ptr %7, align 8, !tbaa !3
  %9 = icmp eq ptr %8, null
  br i1 %9, label %_ZNK6vectorIjLb0EjE5emptyEv.exit.thread.i.i.i.i, label %_ZNK6vectorIjLb0EjE5emptyEv.exit.i.i.i.i

_ZNK6vectorIjLb0EjE5emptyEv.exit.i.i.i.i:         ; preds = %5
  %10 = getelementptr inbounds i8, ptr %8, i64 -4
  %11 = load i32, ptr %10, align 4, !tbaa !21
  %12 = icmp eq i32 %11, 0
  br i1 %12, label %_ZNK6vectorIjLb0EjE5emptyEv.exit.thread.i.i.i.i, label %_ZN6vectorIjLb0EjE4backEv.exit.i.i.i.i

_ZNK6vectorIjLb0EjE5emptyEv.exit.thread.i.i.i.i:  ; preds = %_ZNK6vectorIjLb0EjE5emptyEv.exit.i.i.i.i, %5
  %13 = load i32, ptr %6, align 8, !tbaa !9
  %14 = add i32 %13, 1
  store i32 %14, ptr %6, align 8, !tbaa !9
  br label %_ZN12mpff_manager8allocateER4mpff.exit.i.i

_ZN6vectorIjLb0EjE4backEv.exit.i.i.i.i:           ; preds = %_ZNK6vectorIjLb0EjE5emptyEv.exit.i.i.i.i
  %15 = add i32 %11, -1
  %16 = zext i32 %15 to i64
  %17 = getelementptr inbounds nuw i32, ptr %8, i64 %16
  %18 = load i32, ptr %17, align 4, !tbaa !21
  store i32 %15, ptr %10, align 4, !tbaa !21
  br label %_ZN12mpff_manager8allocateER4mpff.exit.i.i

_ZN12mpff_manager8allocateER4mpff.exit.i.i:       ; preds = %_ZN6vectorIjLb0EjE4backEv.exit.i.i.i.i, %_ZNK6vectorIjLb0EjE5emptyEv.exit.thread.i.i.i.i
  %.0.i.i.i.i = phi i32 [ %13, %_ZNK6vectorIjLb0EjE5emptyEv.exit.thread.i.i.i.i ], [ %18, %_ZN6vectorIjLb0EjE4backEv.exit.i.i.i.i ]
  tail call void @_ZN12mpff_manager15ensure_capacityEj(ptr noundef nonnull align 8 dereferenceable(89) %0, i32 noundef %.0.i.i.i.i)
  %19 = shl i32 %.0.i.i.i.i, 1
  br label %_ZN12mpff_manager18allocate_if_neededER4mpff.exit.i

_ZN12mpff_manager18allocate_if_neededER4mpff.exit.i: ; preds = %_ZN12mpff_manager8allocateER4mpff.exit.i.i, %2
  %20 = phi i32 [ %3, %2 ], [ %19, %_ZN12mpff_manager8allocateER4mpff.exit.i.i ]
  %21 = and i32 %20, -2
  store i32 %21, ptr %1, align 4
  %22 = getelementptr inbounds nuw i8, ptr %1, i64 4
  store i32 -2147483648, ptr %22, align 4, !tbaa !35
  %23 = getelementptr inbounds nuw i8, ptr %0, i64 8
  %24 = load ptr, ptr %23, align 8, !tbaa !3
  %25 = lshr i32 %20, 1
  %26 = load i32, ptr %0, align 8, !tbaa !13
  %27 = mul i32 %26, %25
  %28 = zext i32 %27 to i64
  %29 = getelementptr inbounds nuw i32, ptr %24, i64 %28
  %30 = add i32 %26, -1
  %31 = zext i32 %30 to i64
  %32 = getelementptr inbounds nuw i32, ptr %29, i64 %31
  store i32 -2147483648, ptr %32, align 4, !tbaa !21
  %33 = load i32, ptr %0, align 8, !tbaa !13
  %.not.i.i = icmp eq i32 %33, 1
  br i1 %.not.i.i, label %_ZN12mpff_manager16set_plus_epsilonER4mpff.exit, label %.lr.ph.i.i

.lr.ph.i.i:                                       ; preds = %_ZN12mpff_manager18allocate_if_neededER4mpff.exit.i, %.lr.ph.i.i
  %indvars.iv.i.i = phi i64 [ %indvars.iv.next.i.i, %.lr.ph.i.i ], [ 0, %_ZN12mpff_manager18allocate_if_neededER4mpff.exit.i ]
  %34 = getelementptr inbounds nuw i32, ptr %29, i64 %indvars.iv.i.i
  store i32 0, ptr %34, align 4, !tbaa !21
  %indvars.iv.next.i.i = add nuw nsw i64 %indvars.iv.i.i, 1
  %35 = load i32, ptr %0, align 8, !tbaa !13
  %36 = add i32 %35, -1
  %37 = zext i32 %36 to i64
  %38 = icmp samesign ult i64 %indvars.iv.next.i.i, %37
  br i1 %38, label %.lr.ph.i.i, label %_ZN12mpff_manager16set_plus_epsilonER4mpff.exit, !llvm.loop !60

_ZN12mpff_manager16set_plus_epsilonER4mpff.exit:  ; preds = %.lr.ph.i.i, %_ZN12mpff_manager18allocate_if_neededER4mpff.exit.i
  %39 = load i32, ptr %1, align 4
  %40 = or i32 %39, 1
  store i32 %40, ptr %1, align 4
  ret void
}